(dp1
S'failed'
p2
(lp3
S'7'
asS'source_names'
p4
(lp5
S'.'
asS'ids'
p6
(dp7
I1
(S'/home/xiangzhang/hgis/test/test_hgis_dialog.py'
S'hgis.test.test_hgis_dialog'
p8
S'hgisDialogTest.test_dialog_cancel'
tp9
sI2
(S'/home/xiangzhang/hgis/test/test_hgis_dialog.py'
g8
S'hgisDialogTest.test_dialog_ok'
tp10
sI3
(S'/home/xiangzhang/hgis/test/test_init.py'
S'hgis.test.test_init'
p11
S'TestInit.test_read_init'
tp12
sI4
(S'/home/xiangzhang/hgis/test/test_qgis_environment.py'
S'hgis.test.test_qgis_environment'
p13
S'QGISTest.test_projection'
tp14
sI5
(S'/home/xiangzhang/hgis/test/test_qgis_environment.py'
g13
S'QGISTest.test_qgis_environment'
tp15
sI6
(S'/home/xiangzhang/hgis/test/test_resources.py'
S'hgis.test.test_resources'
p16
S'hgisDialogTest.test_icon_png'
tp17
sI7
(S'/home/xiangzhang/hgis/test/test_translations.py'
S'hgis.test.test_translations'
p18
S'SafeTranslationsTest.test_qgis_translations'
tp19
ss.